; Function Attrs: nounwind uwtable
define hidden void @zim_SessionHandler_close(ptr nocapture noundef readonly %0, ptr nocapture noundef writeonly %1) local_unnamed_addr #0 {
  %3 = alloca [1 x %struct.__jmp_buf_tag], align 16
  %4 = getelementptr inbounds i8, ptr %0, i64 44
  %5 = load i32, ptr %4, align 4
  %6 = icmp eq i32 %5, 0
  br i1 %6, label %8, label %7

7:                                                ; preds = %2
  call void @zend_wrong_parameters_none_error() #5
  br label %8

8:                                                ; preds = %2, %7
  %9 = load i32, ptr getelementptr inbounds (%struct._php_ps_globals, ptr @ps_globals, i64 0, i32 14), align 8
  %.not = icmp eq i32 %9, 2
  br i1 %.not, label %13, label %10

10:                                               ; preds = %8
  call void (ptr, ptr, ...) @zend_throw_error(ptr noundef null, ptr noundef nonnull @.str.1) #5
  %11 = load ptr, ptr getelementptr inbounds (%struct._zend_executor_globals, ptr @executor_globals, i64 0, i32 50), align 8
  %12 = icmp ne ptr %11, null
  call void @llvm.assume(i1 %12)
  br label %37

13:                                               ; preds = %8
  %14 = load ptr, ptr getelementptr inbounds (%struct._php_ps_globals, ptr @ps_globals, i64 0, i32 12), align 8
  %15 = icmp eq ptr %14, null
  br i1 %15, label %16, label %19

16:                                               ; preds = %13
  call void (ptr, ptr, ...) @zend_throw_error(ptr noundef null, ptr noundef nonnull @.str.2) #5
  %17 = load ptr, ptr getelementptr inbounds (%struct._zend_executor_globals, ptr @executor_globals, i64 0, i32 50), align 8
  %18 = icmp ne ptr %17, null
  call void @llvm.assume(i1 %18)
  br label %37

19:                                               ; preds = %13
  %20 = load i8, ptr getelementptr inbounds (%struct._php_ps_globals, ptr @ps_globals, i64 0, i32 27), align 1
  %21 = and i8 %20, 1
  %.not5 = icmp eq i8 %21, 0
  br i1 %.not5, label %22, label %24

22:                                               ; preds = %19
  call void (ptr, i32, ptr, ...) @php_error_docref(ptr noundef null, i32 noundef 2, ptr noundef nonnull @.str.4) #5
  %23 = getelementptr inbounds i8, ptr %1, i64 8
  store i32 2, ptr %23, align 8
  br label %37

24:                                               ; preds = %19
  store i8 0, ptr getelementptr inbounds (%struct._php_ps_globals, ptr @ps_globals, i64 0, i32 27), align 1
  %25 = load ptr, ptr getelementptr inbounds (%struct._zend_executor_globals, ptr @executor_globals, i64 0, i32 7), align 8
  store ptr %3, ptr getelementptr inbounds (%struct._zend_executor_globals, ptr @executor_globals, i64 0, i32 7), align 8
  %26 = call i32 @__sigsetjmp(ptr noundef nonnull %3, i32 noundef 0) #6
  %27 = icmp eq i32 %26, 0
  br i1 %27, label %28, label %36

28:                                               ; preds = %24
  %29 = load ptr, ptr getelementptr inbounds (%struct._php_ps_globals, ptr @ps_globals, i64 0, i32 12), align 8
  %30 = getelementptr inbounds i8, ptr %29, i64 16
  %31 = load ptr, ptr %30, align 8
  %32 = call i32 %31(ptr noundef nonnull getelementptr inbounds (%struct._php_ps_globals, ptr @ps_globals, i64 0, i32 13)) #5
  store ptr %25, ptr getelementptr inbounds (%struct._zend_executor_globals, ptr @executor_globals, i64 0, i32 7), align 8
  %33 = icmp eq i32 %32, 0
  %34 = select i1 %33, i32 3, i32 2
  %35 = getelementptr inbounds i8, ptr %1, i64 8
  store i32 %34, ptr %35, align 8
  br label %37

36:                                               ; preds = %24
  store ptr %25, ptr getelementptr inbounds (%struct._zend_executor_globals, ptr @executor_globals, i64 0, i32 7), align 8
  store i32 1, ptr getelementptr inbounds (%struct._php_ps_globals, ptr @ps_globals, i64 0, i32 14), align 8
  call void @_zend_bailout(ptr noundef nonnull @.str.3, i32 noundef 80) #7
  unreachable

37:                                               ; preds = %28, %22, %16, %10
  ret void
}